; Function Attrs: nounwind uwtable
define internal i32 @io_pclose(ptr noundef %0) #0 {
  %2 = tail call ptr @luaL_checkudata(ptr noundef %0, i32 noundef 1, ptr noundef nonnull @.str.16) #9
  %3 = tail call ptr @__errno_location() #10
  store i32 0, ptr %3, align 4, !tbaa !14
  %4 = load ptr, ptr %2, align 8, !tbaa !11
  %5 = tail call i32 @pclose(ptr noundef %4)
  %6 = tail call i32 @luaL_execresult(ptr noundef %0, i32 noundef %5) #9
  ret i32 %6
}